; Function Attrs: mustprogress uwtable
define void @_ZN32pxrInternal_v0_24__pxrReserved__16SdfAttributeSpec20ClearConnectionPathsEv(ptr noundef nonnull readonly align 8 captures(none) dereferenceable(8) %0) local_unnamed_addr #0 align 2 personality ptr @__gxx_personality_v0 {
  %2 = alloca %"class.pxrInternal_v0_24__pxrReserved__::TfCallContext", align 8
  %3 = alloca %"class.pxrInternal_v0_24__pxrReserved__::SdfListEditorProxy", align 8
  call void @_ZNK32pxrInternal_v0_24__pxrReserved__16SdfAttributeSpec21GetConnectionPathListEv(ptr dead_on_unwind nonnull writable sret(%"class.pxrInternal_v0_24__pxrReserved__::SdfListEditorProxy") align 8 %3, ptr noundef nonnull align 8 dereferenceable(8) %0)
  call void @llvm.lifetime.start.p0(i64 40, ptr nonnull %2)
  %4 = load ptr, ptr %3, align 8
  %.not.i.i = icmp eq ptr %4, null
  br i1 %.not.i.i, label %_ZN32pxrInternal_v0_24__pxrReserved__18SdfListEditorProxyINS_16SdfPathKeyPolicyEE9_ValidateEv.exit.thread.i, label %_ZNK32pxrInternal_v0_24__pxrReserved__18SdfListEditorProxyINS_16SdfPathKeyPolicyEE9IsExpiredEv.exit.i.i

_ZNK32pxrInternal_v0_24__pxrReserved__18SdfListEditorProxyINS_16SdfPathKeyPolicyEE9IsExpiredEv.exit.i.i: ; preds = %1
  %5 = getelementptr inbounds nuw i8, ptr %4, i64 8
  %6 = invoke noundef zeroext i1 @_ZNK32pxrInternal_v0_24__pxrReserved__7SdfSpec9IsDormantEv(ptr noundef nonnull align 8 dereferenceable(8) %5)
          to label %.noexc unwind label %54

.noexc:                                           ; preds = %_ZNK32pxrInternal_v0_24__pxrReserved__18SdfListEditorProxyINS_16SdfPathKeyPolicyEE9IsExpiredEv.exit.i.i
  br i1 %6, label %7, label %12

7:                                                ; preds = %.noexc
  store ptr @.str.20, ptr %2, align 8
  %8 = getelementptr inbounds nuw i8, ptr %2, i64 8
  store ptr @__func__._ZNK32pxrInternal_v0_24__pxrReserved__18SdfListEditorProxyINS_16SdfPathKeyPolicyEE9_ValidateEv, ptr %8, align 8
  %9 = getelementptr inbounds nuw i8, ptr %2, i64 16
  store i64 393, ptr %9, align 8
  %10 = getelementptr inbounds nuw i8, ptr %2, i64 24
  store ptr @__PRETTY_FUNCTION__._ZN32pxrInternal_v0_24__pxrReserved__18SdfListEditorProxyINS_16SdfPathKeyPolicyEE9_ValidateEv, ptr %10, align 8
  %11 = getelementptr inbounds nuw i8, ptr %2, i64 32
  store i8 0, ptr %11, align 8
  invoke void (ptr, i32, ptr, ...) @_ZN32pxrInternal_v0_24__pxrReserved__18Tf_PostErrorHelperERKNS_13TfCallContextENS_16TfDiagnosticTypeEPKcz(ptr noundef nonnull align 8 dereferenceable(33) %2, i32 noundef 1, ptr noundef nonnull @.str.21)
          to label %_ZN32pxrInternal_v0_24__pxrReserved__18SdfListEditorProxyINS_16SdfPathKeyPolicyEE9_ValidateEv.exit.thread.i unwind label %54

_ZN32pxrInternal_v0_24__pxrReserved__18SdfListEditorProxyINS_16SdfPathKeyPolicyEE9_ValidateEv.exit.thread.i: ; preds = %7, %1
  call void @llvm.lifetime.end.p0(i64 40, ptr nonnull %2)
  br label %_ZN32pxrInternal_v0_24__pxrReserved__18SdfListEditorProxyINS_16SdfPathKeyPolicyEE10ClearEditsEv.exit

12:                                               ; preds = %.noexc
  call void @llvm.lifetime.end.p0(i64 40, ptr nonnull %2)
  %13 = load ptr, ptr %3, align 8
  %14 = load ptr, ptr %13, align 8
  %15 = getelementptr inbounds nuw i8, ptr %14, i64 48
  %16 = load ptr, ptr %15, align 8
  %17 = invoke noundef zeroext i1 %16(ptr noundef nonnull align 8 dereferenceable(32) %13)
          to label %_ZN32pxrInternal_v0_24__pxrReserved__18SdfListEditorProxyINS_16SdfPathKeyPolicyEE10ClearEditsEv.exit unwind label %54

_ZN32pxrInternal_v0_24__pxrReserved__18SdfListEditorProxyINS_16SdfPathKeyPolicyEE10ClearEditsEv.exit: ; preds = %_ZN32pxrInternal_v0_24__pxrReserved__18SdfListEditorProxyINS_16SdfPathKeyPolicyEE9_ValidateEv.exit.thread.i, %12
  %18 = getelementptr inbounds nuw i8, ptr %3, i64 8
  %19 = load ptr, ptr %18, align 8
  %.not.i.i.i.i = icmp eq ptr %19, null
  br i1 %.not.i.i.i.i, label %_ZN32pxrInternal_v0_24__pxrReserved__18SdfListEditorProxyINS_16SdfPathKeyPolicyEED2Ev.exit, label %20

20:                                               ; preds = %_ZN32pxrInternal_v0_24__pxrReserved__18SdfListEditorProxyINS_16SdfPathKeyPolicyEE10ClearEditsEv.exit
  %21 = getelementptr inbounds nuw i8, ptr %19, i64 8
  %22 = load atomic i64, ptr %21 acquire, align 8
  %23 = icmp eq i64 %22, 4294967297
  %24 = trunc i64 %22 to i32
  br i1 %23, label %25, label %30

25:                                               ; preds = %20
  store i32 0, ptr %21, align 8
  %26 = getelementptr inbounds nuw i8, ptr %19, i64 12
  store i32 0, ptr %26, align 4
  %27 = load ptr, ptr %19, align 8
  %28 = getelementptr inbounds nuw i8, ptr %27, i64 16
  %29 = load ptr, ptr %28, align 8
  call void %29(ptr noundef nonnull align 8 dereferenceable(16) %19) #17
  br label %_ZNSt16_Sp_counted_baseILN9__gnu_cxx12_Lock_policyE2EE24_M_release_last_use_coldEv.exit.sink.split.i.i.i.i.i

30:                                               ; preds = %20
  %31 = load i8, ptr @__libc_single_threaded, align 1
  %.not.i.i.i.i.i = icmp eq i8 %31, 0
  br i1 %.not.i.i.i.i.i, label %34, label %32

32:                                               ; preds = %30
  %33 = add nsw i32 %24, -1
  store i32 %33, ptr %21, align 4
  br label %36

34:                                               ; preds = %30
  %35 = atomicrmw volatile add ptr %21, i32 -1 acq_rel, align 4
  br label %36

36:                                               ; preds = %34, %32
  %.0.i.i.i.i.i = phi i32 [ %24, %32 ], [ %35, %34 ]
  %37 = icmp eq i32 %.0.i.i.i.i.i, 1
  br i1 %37, label %38, label %_ZN32pxrInternal_v0_24__pxrReserved__18SdfListEditorProxyINS_16SdfPathKeyPolicyEED2Ev.exit

38:                                               ; preds = %36
  %39 = load ptr, ptr %19, align 8
  %40 = getelementptr inbounds nuw i8, ptr %39, i64 16
  %41 = load ptr, ptr %40, align 8
  call void %41(ptr noundef nonnull align 8 dereferenceable(16) %19) #17
  %42 = getelementptr inbounds nuw i8, ptr %19, i64 12
  %43 = load i8, ptr @__libc_single_threaded, align 1
  %.not.i.i.i.i.i.i.i = icmp eq i8 %43, 0
  br i1 %.not.i.i.i.i.i.i.i, label %47, label %44

44:                                               ; preds = %38
  %45 = load i32, ptr %42, align 4
  %46 = add nsw i32 %45, -1
  store i32 %46, ptr %42, align 4
  br label %49

47:                                               ; preds = %38
  %48 = atomicrmw volatile add ptr %42, i32 -1 acq_rel, align 4
  br label %49

49:                                               ; preds = %47, %44
  %.0.i.i.i.i.i.i.i = phi i32 [ %45, %44 ], [ %48, %47 ]
  %50 = icmp eq i32 %.0.i.i.i.i.i.i.i, 1
  br i1 %50, label %_ZNSt16_Sp_counted_baseILN9__gnu_cxx12_Lock_policyE2EE24_M_release_last_use_coldEv.exit.sink.split.i.i.i.i.i, label %_ZN32pxrInternal_v0_24__pxrReserved__18SdfListEditorProxyINS_16SdfPathKeyPolicyEED2Ev.exit

_ZNSt16_Sp_counted_baseILN9__gnu_cxx12_Lock_policyE2EE24_M_release_last_use_coldEv.exit.sink.split.i.i.i.i.i: ; preds = %49, %25
  %51 = load ptr, ptr %19, align 8
  %52 = getelementptr inbounds nuw i8, ptr %51, i64 24
  %53 = load ptr, ptr %52, align 8
  call void %53(ptr noundef nonnull align 8 dereferenceable(16) %19) #17
  br label %_ZN32pxrInternal_v0_24__pxrReserved__18SdfListEditorProxyINS_16SdfPathKeyPolicyEED2Ev.exit

_ZN32pxrInternal_v0_24__pxrReserved__18SdfListEditorProxyINS_16SdfPathKeyPolicyEED2Ev.exit: ; preds = %_ZN32pxrInternal_v0_24__pxrReserved__18SdfListEditorProxyINS_16SdfPathKeyPolicyEE10ClearEditsEv.exit, %36, %49, %_ZNSt16_Sp_counted_baseILN9__gnu_cxx12_Lock_policyE2EE24_M_release_last_use_coldEv.exit.sink.split.i.i.i.i.i
  ret void

54:                                               ; preds = %12, %7, %_ZNK32pxrInternal_v0_24__pxrReserved__18SdfListEditorProxyINS_16SdfPathKeyPolicyEE9IsExpiredEv.exit.i.i
  %55 = landingpad { ptr, i32 }
          cleanup
  call void @_ZN32pxrInternal_v0_24__pxrReserved__18SdfListEditorProxyINS_16SdfPathKeyPolicyEED2Ev(ptr noundef nonnull align 8 dereferenceable(16) %3) #17
  resume { ptr, i32 } %55
}